; Function Attrs: mustprogress uwtable
define void @_ZN5faiss32IndexIVFProductResidualQuantizerC2Ev(ptr noundef nonnull align 8 dereferenceable(624) %0) unnamed_addr #2 align 2 personality ptr @__gxx_personality_v0 {
  store ptr getelementptr inbounds ({ [35 x ptr], [6 x ptr] }, ptr @_ZTVN5faiss32IndexIVFProductResidualQuantizerE, i64 0, i32 0, i64 2), ptr %0, align 8
  %2 = getelementptr inbounds i8, ptr %0, i64 40
  store ptr getelementptr inbounds ({ [35 x ptr], [6 x ptr] }, ptr @_ZTVN5faiss32IndexIVFProductResidualQuantizerE, i64 0, i32 1, i64 2), ptr %2, align 8
  %3 = getelementptr inbounds i8, ptr %0, i64 280
  tail call void @_ZN5faiss8IndexIVFC2Ev(ptr noundef nonnull align 8 dereferenceable(257) %0)
  %4 = getelementptr inbounds i8, ptr %0, i64 264
  store ptr %3, ptr %4, align 8
  %5 = getelementptr inbounds i8, ptr %0, i64 272
  store i32 0, ptr %5, align 8
  store ptr getelementptr inbounds ({ [35 x ptr], [6 x ptr] }, ptr @_ZTVN5faiss32IndexIVFProductResidualQuantizerE, i64 0, i32 0, i64 2), ptr %0, align 8
  store ptr getelementptr inbounds ({ [35 x ptr], [6 x ptr] }, ptr @_ZTVN5faiss32IndexIVFProductResidualQuantizerE, i64 0, i32 1, i64 2), ptr %2, align 8
  invoke void @_ZN5faiss24ProductResidualQuantizerC1Ev(ptr noundef nonnull align 8 dereferenceable(344) %3)
          to label %6 unwind label %7

6:                                                ; preds = %1
  ret void

7:                                                ; preds = %1
  %8 = landingpad { ptr, i32 }
          cleanup
  tail call void @_ZN5faiss8IndexIVFD2Ev(ptr noundef nonnull align 8 dereferenceable(257) %0) #9
  resume { ptr, i32 } %8
}